Certificate:
    Data:
        Version: 3 (0x2)
        Serial Number: 4098 (0x1002)
        Signature Algorithm: sha256WithRSAEncryption
        Issuer: C=US, ST=NY, L=SYR, O=SYR, OU=SYR, CN=seedlabca.com
        Validity
            Not Before: Aug 29 07:27:46 2022 GMT
            Not After : Aug 26 07:27:46 2032 GMT
        Subject: C=US, ST=NY, L=SYR, O=SYR, OU=SYR, CN=vpnlabserver.com
        Subject Public Key Info:
            Public Key Algorithm: rsaEncryption
                RSA Public-Key: (2048 bit)
                Modulus:
                    00:ec:4d:f6:43:a9:37:86:a4:ac:cd:9b:2f:9a:85:
                    ae:a4:8e:be:70:32:c5:8c:ae:66:bb:85:52:4a:90:
                    ed:b9:02:17:77:d9:c4:11:0c:e5:66:96:50:3d:d7:
                    93:85:c4:fc:2e:ef:56:63:5a:c0:7d:c7:be:19:99:
                    12:35:8d:fb:0b:67:9f:b7:e2:77:27:57:8d:88:e2:
                    4a:51:e1:fa:e5:33:10:75:47:f0:ab:9e:bd:f0:66:
                    31:4b:f8:a9:7b:32:94:15:e2:5e:70:07:ef:90:05:
                    7b:be:6a:82:99:7b:3f:41:be:aa:25:c8:52:b6:4d:
                    38:42:29:55:c5:13:0a:dc:4f:40:e3:2e:c1:0e:7e:
                    2a:69:a5:0e:e6:cc:39:9e:7f:31:36:6a:fb:fd:e1:
                    3a:05:03:07:6d:4c:ac:d5:38:2c:a5:c1:b6:b1:e0:
                    21:25:a9:94:71:c3:62:a1:e8:1e:44:6f:c4:8c:27:
                    a1:fb:13:7e:4a:1c:5f:98:15:fe:f0:61:3d:8a:e4:
                    03:27:df:a3:d9:b3:5f:8b:5c:b7:fa:21:12:c8:b3:
                    7f:98:fb:9a:4c:8a:b2:8b:09:60:71:1e:27:1a:ca:
                    66:e6:de:ed:70:bf:d3:8d:2a:15:1f:78:48:8d:f4:
                    eb:cd:5d:05:b1:7a:8d:e1:ce:ef:3d:9e:1d:9f:4b:
                    ac:63
                Exponent: 65537 (0x10001)
        X509v3 extensions:
            X509v3 Basic Constraints: 
                CA:FALSE
            Netscape Comment: 
                OpenSSL Generated Certificate
            X509v3 Subject Key Identifier: 
                C2:8B:1F:E3:D4:71:9F:F1:FC:3D:24:7D:50:3D:C5:80:B0:18:97:63
            X509v3 Authority Key Identifier: 
                keyid:14:F3:1C:70:F5:2D:F0:DE:EF:12:B9:96:C3:38:1A:95:E3:07:55:78

    Signature Algorithm: sha256WithRSAEncryption
         71:05:1c:fa:a8:f3:f2:6b:4d:d8:52:8f:c9:7d:62:d0:41:e6:
         c8:b0:ac:b1:05:9e:d3:88:de:43:eb:43:f1:83:60:5d:31:f1:
         2d:ad:9f:8c:50:c1:b4:3d:2e:2f:24:ac:2c:43:42:35:a5:c5:
         9e:d2:14:bb:d0:c6:46:13:ab:5f:db:41:29:90:77:9f:26:a5:
         fa:73:ec:69:41:66:e4:51:cc:11:4c:2e:3e:f6:ad:a3:3d:d0:
         2f:a7:53:8b:f6:91:b7:23:ab:0b:61:17:1a:a7:99:14:33:5e:
         f0:f2:5d:38:3f:9d:20:c2:fd:82:f7:ea:25:c9:72:d0:a0:07:
         45:4d:84:14:9f:2a:1b:5d:e5:f1:73:a4:dc:d8:0c:ad:e2:ef:
         68:84:17:60:dd:83:0b:2f:24:16:bc:13:79:b7:39:00:a1:ff:
         80:8a:09:08:83:e9:f1:6e:cc:0e:df:d9:8e:61:1d:74:75:c0:
         03:29:fb:8e:04:83:0b:7f:fc:08:22:2c:08:7b:b2:45:de:ee:
         de:9e:75:46:24:14:4a:6a:c7:ae:f3:90:6c:87:f1:65:42:d3:
         0c:90:93:b5:6c:75:6e:7a:07:09:2e:78:b9:47:a5:25:2c:08:
         db:25:65:a0:e9:79:0a:60:be:08:8a:d0:e7:1e:00:0d:ff:e6:
         90:bc:03:79
-----BEGIN CERTIFICATE-----
MIIDsjCCApqgAwIBAgICEAIwDQYJKoZIhvcNAQELBQAwXDELMAkGA1UEBhMCVVMx
CzAJBgNVBAgMAk5ZMQwwCgYDVQQHDANTWVIxDDAKBgNVBAoMA1NZUjEMMAoGA1UE
CwwDU1lSMRYwFAYDVQQDDA1zZWVkbGFiY2EuY29tMB4XDTIyMDgyOTA3Mjc0NloX
DTMyMDgyNjA3Mjc0NlowXzELMAkGA1UEBhMCVVMxCzAJBgNVBAgMAk5ZMQwwCgYD
VQQHDANTWVIxDDAKBgNVBAoMA1NZUjEMMAoGA1UECwwDU1lSMRkwFwYDVQQDDBB2
cG5sYWJzZXJ2ZXIuY29tMIIBIjANBgkqhkiG9w0BAQEFAAOCAQ8AMIIBCgKCAQEA
7E32Q6k3hqSszZsvmoWupI6+cDLFjK5mu4VSSpDtuQIXd9nEEQzlZpZQPdeThcT8
Lu9WY1rAfce+GZkSNY37C2eft+J3J1eNiOJKUeH65TMQdUfwq5698GYxS/ipezKU
FeJecAfvkAV7vmqCmXs/Qb6qJchStk04QilVxRMK3E9A4y7BDn4qaaUO5sw5nn8x
Nmr7/eE6BQMHbUys1TgspcG2seAhJamUccNioegeRG/EjCeh+xN+ShxfmBX+8GE9
iuQDJ9+j2bNfi1y3+iESyLN/mPuaTIqyiwlgcR4nGspm5t7tcL/TjSoVH3hIjfTr
zV0FsXqN4c7vPZ4dn0usYwIDAQABo3sweTAJBgNVHRMEAjAAMCwGCWCGSAGG+EIB
DQQfFh1PcGVuU1NMIEdlbmVyYXRlZCBDZXJ0aWZpY2F0ZTAdBgNVHQ4EFgQUwosf
49Rxn/H8PSR9UD3FgLAYl2MwHwYDVR0jBBgwFoAUFPMccPUt8N7vErmWwzgaleMH
VXgwDQYJKoZIhvcNAQELBQADggEBAHEFHPqo8/JrTdhSj8l9YtBB5siwrLEFntOI
3kPrQ/GDYF0x8S2tn4xQwbQ9Li8krCxDQjWlxZ7SFLvQxkYTq1/bQSmQd58mpfpz
7GlBZuRRzBFMLj72raM90C+nU4v2kbcjqwthFxqnmRQzXvDyXTg/nSDC/YL36iXJ
ctCgB0VNhBSfKhtd5fFzpNzYDK3i72iEF2DdgwsvJBa8E3m3OQCh/4CKCQiD6fFu
zA7f2Y5hHXR1wAMp+44Egwt//AgiLAh7skXe7t6edUYkFEpqx67zkGyH8WVC0wyQ
k7VsdW56BwkueLlHpSUsCNslZaDpeQpgvgiK0OceAA3/5pC8A3k=
-----END CERTIFICATE-----
