Certificate:
    Data:
        Version: 3 (0x2)
        Serial Number: 4096 (0x1000)
        Signature Algorithm: sha256WithRSAEncryption
        Issuer: CN=www.modelCA.com, O=Model CA LTD., C=US
        Validity
            Not Before: Aug 11 00:53:55 2022 GMT
            Not After : Aug  8 00:53:55 2032 GMT
        Subject: C=US, O=Zcy2022 Inc., CN=www.zcy2022.com
        Subject Public Key Info:
            Public Key Algorithm: rsaEncryption
                RSA Public-Key: (2048 bit)
                Modulus:
                    00:b6:c4:b1:ce:38:9d:9f:00:26:12:dc:93:d1:37:
                    64:ad:66:ce:9c:5c:6c:db:56:5d:dc:21:36:55:cb:
                    c3:b2:c0:9a:b8:54:b0:71:fe:88:f8:06:7b:73:e0:
                    2b:32:36:83:07:35:50:3b:0a:7e:6b:ff:53:45:d6:
                    db:62:54:c1:c1:cb:50:b1:8e:b3:09:d5:be:91:37:
                    f7:f0:28:93:a4:df:27:5e:cc:44:4c:ba:78:e7:2a:
                    ca:a9:a5:b2:13:ba:a8:cf:01:3c:8b:f4:81:e6:ad:
                    f4:7d:74:76:91:b3:f2:72:37:00:76:9e:a7:d0:ed:
                    50:9b:fa:73:95:c9:09:72:d6:fd:b9:01:2d:18:b2:
                    4a:34:61:ec:25:61:49:ce:a6:11:8e:ce:90:f5:ef:
                    e1:fc:cd:52:73:d7:d3:83:ab:e0:79:5c:5e:45:25:
                    af:48:ba:c3:e8:f7:dd:e7:e5:3b:dd:bc:4a:c1:d0:
                    c3:6a:ad:31:23:a2:90:22:e6:49:e6:15:21:3a:64:
                    ad:8d:21:41:6e:2b:94:13:25:62:9e:bd:08:3b:e6:
                    44:8b:8e:08:eb:3e:e5:0a:a7:17:87:6e:76:f5:c9:
                    8d:08:78:bf:02:2f:c9:ea:66:23:29:3b:9a:75:05:
                    f0:53:69:e7:2c:11:81:6d:d1:da:68:ca:5c:98:89:
                    cd:7d
                Exponent: 65537 (0x10001)
        X509v3 extensions:
            X509v3 Basic Constraints: 
                CA:FALSE
            Netscape Comment: 
                OpenSSL Generated Certificate
            X509v3 Subject Key Identifier: 
                2E:65:41:6D:AD:44:71:31:7D:EC:62:75:77:AD:5E:1A:BB:CF:D6:AC
            X509v3 Authority Key Identifier: 
                keyid:51:18:A9:48:00:B9:40:C4:61:01:99:1C:D8:BA:1B:08:D1:DC:D7:3C

            X509v3 Subject Alternative Name: 
                DNS:www.zcy2022.com, DNS:www.zcy2022A.com, DNS:www.zcy2022B.com
    Signature Algorithm: sha256WithRSAEncryption
         20:4c:1d:ca:ef:5d:b5:f8:65:e3:80:f9:83:c6:ca:53:fe:13:
         fd:9d:a8:82:c3:da:7f:31:53:67:4d:75:bc:cc:06:33:ed:c6:
         d2:12:d3:f8:28:2a:f6:84:60:01:d6:42:5b:cc:29:c8:23:29:
         32:1a:3e:79:55:f2:63:c9:1c:7f:fb:46:47:a7:e3:4d:94:45:
         03:51:51:ae:2d:1e:7b:59:59:f4:a2:7a:99:29:e7:0b:7f:43:
         be:7d:1a:11:43:53:73:7d:5d:cd:a9:b8:d3:50:b9:e5:e0:46:
         b0:9e:d8:d1:ba:c4:85:db:20:ee:d6:36:04:4d:af:85:42:8e:
         a4:91:db:cf:21:8c:78:c1:07:67:9d:3a:d2:fa:9c:74:be:4f:
         39:d4:a2:7f:ad:42:fc:31:b9:8e:70:5f:9c:a3:67:26:23:e0:
         0d:76:b0:33:16:1f:ee:c1:81:54:c2:af:aa:49:ae:56:4f:2b:
         08:07:bd:0e:4b:7d:02:5d:53:a9:1e:7a:4f:6c:47:95:86:bb:
         df:67:09:77:6a:e6:c8:b6:78:dc:41:de:9e:da:ed:87:72:33:
         42:3c:46:ba:33:2c:3c:ef:c0:8f:3d:cf:6c:62:f5:d6:5f:e4:
         ef:4c:e4:58:c4:f6:9f:e8:03:e6:5f:20:9f:2e:a0:67:7f:a7:
         a6:2d:2a:1d:8c:89:ee:3e:5d:df:9d:43:25:ef:ba:51:cc:31:
         21:70:d2:9e:88:a0:1c:d3:e8:3c:a7:23:bd:12:14:c8:a8:2e:
         51:40:2e:45:9c:75:3e:55:9a:06:0d:36:7c:6e:86:39:a4:1e:
         03:a4:7d:a8:7a:fc:19:55:b3:ac:d8:76:44:d1:0b:f5:66:7b:
         dd:e1:b4:94:71:96:9e:8c:89:c5:cd:90:6c:b5:96:34:f5:82:
         d6:eb:87:4d:b8:51:7c:9f:04:85:96:67:64:ad:f8:01:29:16:
         b1:32:e5:16:1f:86:68:dc:7d:4a:05:3d:ba:e3:16:ef:ea:55:
         d7:cb:2f:ec:b0:fc:58:a8:39:f9:e7:3b:7b:39:b8:ac:c7:82:
         c1:23:50:55:c1:ef:8a:5f:a8:e7:e6:2d:d6:1e:25:9a:45:81:
         af:75:31:fd:ca:8c:8b:1f:ff:ef:5a:f6:0d:92:f2:1c:1a:67:
         a4:33:0c:5b:cc:a4:25:5e:fc:89:2f:b4:80:73:64:ef:95:22:
         28:b4:d3:a5:13:d1:14:67:c7:22:93:74:c0:dc:31:2b:99:c6:
         cc:29:5c:b9:26:68:ac:4a:bc:23:21:b8:99:da:0a:e6:19:47:
         29:ab:1f:63:38:9f:bf:a8:de:aa:e4:84:19:68:7e:40:18:5f:
         53:de:bd:24:e2:58:af:d6
-----BEGIN CERTIFICATE-----
MIIEtjCCAp6gAwIBAgICEAAwDQYJKoZIhvcNAQELBQAwPzEYMBYGA1UEAwwPd3d3
Lm1vZGVsQ0EuY29tMRYwFAYDVQQKDA1Nb2RlbCBDQSBMVEQuMQswCQYDVQQGEwJV
UzAeFw0yMjA4MTEwMDUzNTVaFw0zMjA4MDgwMDUzNTVaMD4xCzAJBgNVBAYTAlVT
MRUwEwYDVQQKDAxaY3kyMDIyIEluYy4xGDAWBgNVBAMMD3d3dy56Y3kyMDIyLmNv
bTCCASIwDQYJKoZIhvcNAQEBBQADggEPADCCAQoCggEBALbEsc44nZ8AJhLck9E3
ZK1mzpxcbNtWXdwhNlXLw7LAmrhUsHH+iPgGe3PgKzI2gwc1UDsKfmv/U0XW22JU
wcHLULGOswnVvpE39/Aok6TfJ17MREy6eOcqyqmlshO6qM8BPIv0geat9H10dpGz
8nI3AHaep9DtUJv6c5XJCXLW/bkBLRiySjRh7CVhSc6mEY7OkPXv4fzNUnPX04Or
4HlcXkUlr0i6w+j33eflO928SsHQw2qtMSOikCLmSeYVITpkrY0hQW4rlBMlYp69
CDvmRIuOCOs+5QqnF4dudvXJjQh4vwIvyepmIyk7mnUF8FNp5ywRgW3R2mjKXJiJ
zX0CAwEAAaOBvDCBuTAJBgNVHRMEAjAAMCwGCWCGSAGG+EIBDQQfFh1PcGVuU1NM
IEdlbmVyYXRlZCBDZXJ0aWZpY2F0ZTAdBgNVHQ4EFgQULmVBba1EcTF97GJ1d61e
GrvP1qwwHwYDVR0jBBgwFoAUURipSAC5QMRhAZkc2LobCNHc1zwwPgYDVR0RBDcw
NYIPd3d3LnpjeTIwMjIuY29tghB3d3cuemN5MjAyMkEuY29tghB3d3cuemN5MjAy
MkIuY29tMA0GCSqGSIb3DQEBCwUAA4ICAQAgTB3K7121+GXjgPmDxspT/hP9naiC
w9p/MVNnTXW8zAYz7cbSEtP4KCr2hGAB1kJbzCnIIykyGj55VfJjyRx/+0ZHp+NN
lEUDUVGuLR57WVn0onqZKecLf0O+fRoRQ1NzfV3NqbjTULnl4EawntjRusSF2yDu
1jYETa+FQo6kkdvPIYx4wQdnnTrS+px0vk851KJ/rUL8MbmOcF+co2cmI+ANdrAz
Fh/uwYFUwq+qSa5WTysIB70OS30CXVOpHnpPbEeVhrvfZwl3aubItnjcQd6e2u2H
cjNCPEa6Myw878CPPc9sYvXWX+TvTORYxPaf6APmXyCfLqBnf6emLSodjInuPl3f
nUMl77pRzDEhcNKeiKAc0+g8pyO9EhTIqC5RQC5FnHU+VZoGDTZ8boY5pB4DpH2o
evwZVbOs2HZE0Qv1Znvd4bSUcZaejInFzZBstZY09YLW64dNuFF8nwSFlmdkrfgB
KRaxMuUWH4Zo3H1KBT264xbv6lXXyy/ssPxYqDn55zt7Obisx4LBI1BVwe+KX6jn
5i3WHiWaRYGvdTH9yoyLH//vWvYNkvIcGmekMwxbzKQlXvyJL7SAc2TvlSIotNOl
E9EUZ8cik3TA3DErmcbMKVy5JmisSrwjIbiZ2grmGUcpqx9jOJ+/qN6q5IQZaH5A
GF9T3r0k4liv1g==
-----END CERTIFICATE-----
