Certificate:
    Data:
        Version: 3 (0x2)
        Serial Number: 4099 (0x1003)
        Signature Algorithm: sha256WithRSAEncryption
        Issuer: C=CN, ST=jiangsu, L=nanjing, O=seu, OU=seu, CN=seu
        Validity
            Not Before: Aug 29 11:54:01 2022 GMT
            Not After : Aug 29 11:54:01 2023 GMT
        Subject: C=CN, ST=jiangsu, O=seu, OU=seu, CN=zcy123.com
        Subject Public Key Info:
            Public Key Algorithm: rsaEncryption
                RSA Public-Key: (1024 bit)
                Modulus:
                    00:cb:e6:08:b4:45:12:2e:02:9e:4c:39:02:e9:33:
                    c8:78:32:0e:16:f3:23:d8:d5:db:d2:b8:1a:72:cc:
                    4d:55:4b:70:81:85:1d:ff:1b:78:fc:e3:d1:c2:f5:
                    27:e2:61:d1:6b:6a:6a:d8:7e:9e:06:e2:01:22:80:
                    f8:3f:4f:7c:bd:b0:6f:8f:31:ef:34:ed:ed:23:4e:
                    24:ec:10:ec:4c:ca:f0:e6:8e:e2:1c:6c:f6:7c:ff:
                    62:17:69:f7:cb:c6:bb:5f:c7:85:10:99:83:e7:e3:
                    ed:ee:85:78:18:0a:51:1a:ae:99:f4:7a:8c:bb:6c:
                    50:f3:80:63:1c:f6:09:6b:cd
                Exponent: 65537 (0x10001)
        X509v3 extensions:
            X509v3 Basic Constraints: 
                CA:FALSE
            Netscape Comment: 
                OpenSSL Generated Certificate
            X509v3 Subject Key Identifier: 
                F6:43:C4:D4:45:5C:E4:78:A4:FA:48:91:0D:9F:D5:EE:74:F9:8D:48
            X509v3 Authority Key Identifier: 
                keyid:BE:A4:4E:CD:F1:D9:4A:94:D4:ED:49:B9:E7:91:53:96:E9:00:CA:C6

    Signature Algorithm: sha256WithRSAEncryption
         4d:f3:4d:13:8d:1c:66:6d:e7:75:c3:04:99:5d:53:9c:35:a0:
         e1:5c:98:7c:e1:d2:b9:6c:10:e4:14:77:b8:fb:03:23:92:e5:
         d5:bd:f6:e5:31:d9:32:3d:16:8b:89:cf:23:bf:01:49:cc:d2:
         3c:82:30:0f:b2:5e:40:7a:a1:6e:14:6e:30:6c:4e:11:85:2f:
         ba:03:a4:cf:76:b0:76:88:ba:b3:8b:a5:0d:1a:19:15:de:44:
         26:7c:17:c1:ac:6e:c2:4a:f2:fc:78:0a:d2:b7:bc:5c:b6:ea:
         d3:b8:f7:63:0b:20:b0:2e:27:8f:d3:1d:b7:3d:09:42:83:f2:
         9d:b3
-----BEGIN CERTIFICATE-----
MIICnTCCAgagAwIBAgICEAMwDQYJKoZIhvcNAQELBQAwWzELMAkGA1UEBhMCQ04x
EDAOBgNVBAgMB2ppYW5nc3UxEDAOBgNVBAcMB25hbmppbmcxDDAKBgNVBAoMA3Nl
dTEMMAoGA1UECwwDc2V1MQwwCgYDVQQDDANzZXUwHhcNMjIwODI5MTE1NDAxWhcN
MjMwODI5MTE1NDAxWjBQMQswCQYDVQQGEwJDTjEQMA4GA1UECAwHamlhbmdzdTEM
MAoGA1UECgwDc2V1MQwwCgYDVQQLDANzZXUxEzARBgNVBAMMCnpjeTEyMy5jb20w
gZ8wDQYJKoZIhvcNAQEBBQADgY0AMIGJAoGBAMvmCLRFEi4Cnkw5AukzyHgyDhbz
I9jV29K4GnLMTVVLcIGFHf8bePzj0cL1J+Jh0Wtqath+ngbiASKA+D9PfL2wb48x
7zTt7SNOJOwQ7EzK8OaO4hxs9nz/Yhdp98vGu1/HhRCZg+fj7e6FeBgKURqumfR6
jLtsUPOAYxz2CWvNAgMBAAGjezB5MAkGA1UdEwQCMAAwLAYJYIZIAYb4QgENBB8W
HU9wZW5TU0wgR2VuZXJhdGVkIENlcnRpZmljYXRlMB0GA1UdDgQWBBT2Q8TURVzk
eKT6SJENn9XudPmNSDAfBgNVHSMEGDAWgBS+pE7N8dlKlNTtSbnnkVOW6QDKxjAN
BgkqhkiG9w0BAQsFAAOBgQBN800TjRxmbed1wwSZXVOcNaDhXJh84dK5bBDkFHe4
+wMjkuXVvfblMdkyPRaLic8jvwFJzNI8gjAPsl5AeqFuFG4wbE4RhS+6A6TPdrB2
iLqzi6UNGhkV3kQmfBfBrG7CSvL8eArSt7xcturTuPdjCyCwLieP0x23PQlCg/Kd
sw==
-----END CERTIFICATE-----
