Certificate:
    Data:
        Version: 3 (0x2)
        Serial Number: 4099 (0x1003)
        Signature Algorithm: sha256WithRSAEncryption
        Issuer: C=US, ST=NY, L=SYR, O=SYR, OU=SYR, CN=seedlabca.com
        Validity
            Not Before: Aug 29 07:45:02 2022 GMT
            Not After : Aug 26 07:45:02 2032 GMT
        Subject: C=US, O=zcy Inc., CN=www.zcy.com
        Subject Public Key Info:
            Public Key Algorithm: rsaEncryption
                RSA Public-Key: (2048 bit)
                Modulus:
                    00:c8:e8:5d:23:66:75:4b:6f:09:0f:2e:0a:96:7a:
                    57:78:c9:96:85:4e:45:59:a8:5a:4a:df:25:a2:b0:
                    9c:28:07:5c:9b:0b:63:85:c8:e9:0f:af:15:1f:d0:
                    8e:fb:67:19:5d:b5:6e:ac:e5:d9:9e:b0:f7:85:41:
                    bf:18:a0:89:d7:b7:5b:80:e0:3e:e0:0e:2c:99:26:
                    9c:48:6f:7d:26:51:36:cf:b1:6f:39:34:11:a7:3b:
                    7a:42:cf:1c:a4:28:7b:2d:7f:f2:33:e4:b8:11:22:
                    a0:4f:23:83:84:81:e9:fb:f4:9b:4d:b0:cb:29:8c:
                    cd:c0:b4:00:8c:99:d9:77:2a:e2:0b:5b:f6:b6:1a:
                    ed:02:e1:31:c6:b6:21:9d:3b:36:23:7c:cd:fc:49:
                    2e:c3:ef:f5:2e:71:18:91:35:8d:fe:38:6d:11:5c:
                    83:8f:dc:d3:38:b4:40:78:c6:36:3e:eb:bb:ed:d3:
                    e7:e7:d1:b7:0a:8b:1b:b1:dd:73:3e:a8:38:e9:c4:
                    60:c0:44:45:c3:d6:5f:8a:97:8e:22:d5:56:80:73:
                    8d:f1:7f:bc:b0:a3:1c:cc:83:79:cd:ea:27:59:e3:
                    02:51:f0:f5:5e:cf:51:da:b3:5c:45:7e:f7:1c:af:
                    1b:10:39:f3:97:37:68:57:d6:3c:1f:c6:e7:bb:e6:
                    50:5b
                Exponent: 65537 (0x10001)
        X509v3 extensions:
            X509v3 Basic Constraints: 
                CA:FALSE
            Netscape Comment: 
                OpenSSL Generated Certificate
            X509v3 Subject Key Identifier: 
                97:56:D6:96:E5:26:6C:EC:B2:41:17:CB:90:0C:17:D9:9F:47:ED:EE
            X509v3 Authority Key Identifier: 
                keyid:14:F3:1C:70:F5:2D:F0:DE:EF:12:B9:96:C3:38:1A:95:E3:07:55:78

    Signature Algorithm: sha256WithRSAEncryption
         90:81:c1:88:2d:7a:d6:41:94:94:28:40:74:83:18:eb:54:e6:
         6b:1d:2d:bb:e3:be:56:a7:52:3b:38:89:cc:37:e7:bb:62:f8:
         bd:8e:20:d8:34:7b:af:df:dd:4b:b5:d1:f2:3e:26:57:dd:f6:
         fc:dc:6c:31:d3:b1:21:17:87:b1:f1:12:27:35:36:d7:96:ed:
         0e:4f:9b:02:6d:a0:7f:38:04:1d:4b:14:2c:6b:0a:11:5c:00:
         3f:9d:ce:0e:f6:18:fd:b7:3c:90:75:db:ce:bc:aa:93:30:65:
         d4:b8:68:f7:e1:af:76:cf:5f:ad:5f:a2:69:1d:2f:71:21:59:
         2a:4f:6b:2a:d3:ac:e8:23:0c:ec:5f:ff:5f:22:5e:6a:ad:56:
         9e:03:a2:f4:07:d1:6c:e4:dc:12:49:f2:d9:0e:38:8c:35:7a:
         cb:d5:7c:45:cf:c0:e0:1f:81:ac:8d:a8:e9:f0:d1:fd:45:fa:
         c7:1e:78:a7:eb:1e:83:95:77:2f:19:a0:e8:28:cc:fb:df:20:
         39:db:36:54:58:84:25:95:91:35:5a:de:af:65:02:64:65:76:
         1e:1f:4e:b8:29:f4:4b:a4:60:5a:5d:e6:07:fc:a0:49:f9:9c:
         67:2c:1c:a0:54:0c:33:25:88:10:6e:5d:e1:14:1a:97:e3:e6:
         ea:11:d9:cd
-----BEGIN CERTIFICATE-----
MIIDiTCCAnGgAwIBAgICEAMwDQYJKoZIhvcNAQELBQAwXDELMAkGA1UEBhMCVVMx
CzAJBgNVBAgMAk5ZMQwwCgYDVQQHDANTWVIxDDAKBgNVBAoMA1NZUjEMMAoGA1UE
CwwDU1lSMRYwFAYDVQQDDA1zZWVkbGFiY2EuY29tMB4XDTIyMDgyOTA3NDUwMloX
DTMyMDgyNjA3NDUwMlowNjELMAkGA1UEBhMCVVMxETAPBgNVBAoMCHpjeSBJbmMu
MRQwEgYDVQQDDAt3d3cuemN5LmNvbTCCASIwDQYJKoZIhvcNAQEBBQADggEPADCC
AQoCggEBAMjoXSNmdUtvCQ8uCpZ6V3jJloVORVmoWkrfJaKwnCgHXJsLY4XI6Q+v
FR/QjvtnGV21bqzl2Z6w94VBvxigide3W4DgPuAOLJkmnEhvfSZRNs+xbzk0Eac7
ekLPHKQoey1/8jPkuBEioE8jg4SB6fv0m02wyymMzcC0AIyZ2Xcq4gtb9rYa7QLh
Mca2IZ07NiN8zfxJLsPv9S5xGJE1jf44bRFcg4/c0zi0QHjGNj7ru+3T5+fRtwqL
G7Hdcz6oOOnEYMBERcPWX4qXjiLVVoBzjfF/vLCjHMyDec3qJ1njAlHw9V7PUdqz
XEV+9xyvGxA585c3aFfWPB/G57vmUFsCAwEAAaN7MHkwCQYDVR0TBAIwADAsBglg
hkgBhvhCAQ0EHxYdT3BlblNTTCBHZW5lcmF0ZWQgQ2VydGlmaWNhdGUwHQYDVR0O
BBYEFJdW1pblJmzsskEXy5AMF9mfR+3uMB8GA1UdIwQYMBaAFBTzHHD1LfDe7xK5
lsM4GpXjB1V4MA0GCSqGSIb3DQEBCwUAA4IBAQCQgcGILXrWQZSUKEB0gxjrVOZr
HS27475Wp1I7OInMN+e7Yvi9jiDYNHuv391LtdHyPiZX3fb83Gwx07EhF4ex8RIn
NTbXlu0OT5sCbaB/OAQdSxQsawoRXAA/nc4O9hj9tzyQddvOvKqTMGXUuGj34a92
z1+tX6JpHS9xIVkqT2sq06zoIwzsX/9fIl5qrVaeA6L0B9Fs5NwSSfLZDjiMNXrL
1XxFz8DgH4Gsjajp8NH9RfrHHnin6x6DlXcvGaDoKMz73yA52zZUWIQllZE1Wt6v
ZQJkZXYeH064KfRLpGBaXeYH/KBJ+ZxnLBygVAwzJYgQbl3hFBqX4+bqEdnN
-----END CERTIFICATE-----
